target datalayout = "e-m:e-p270:32:32-p271:32:32-p272:64:64-i64:64-i128:128-f80:128-n8:16:32:64-S128"
target triple = "x86_64-pc-linux-gnu"

%struct.AVCodecContext = type { ptr, i32, i32, ptr, i32, i32, ptr, ptr, ptr, i64, i32, i32, ptr, i32, %struct.AVRational, %struct.AVRational, %struct.AVRational, i32, i32, i32, i32, i32, %struct.AVRational, i32, i32, i32, i32, i32, i32, i32, i32, i32, i32, i32, ptr, ptr, i32, float, float, float, float, float, float, float, float, float, i32, i32, i32, i32, i32, i32, i32, i32, i32, i32, i32, i32, ptr, ptr, ptr, i32, i32, i32, i32, i32, i32, i32, i32, i32, i32, %struct.AVChannelLayout, i32, i32, i32, i32, i32, i32, i32, i32, ptr, i32, i32, i32, float, float, i32, i32, i32, i32, i32, ptr, i64, i64, float, float, i32, i32, ptr, ptr, i32, i32, i32, i32, i32, ptr, ptr, ptr, ptr, i32, i32, [8 x i64], i32, i32, i32, i32, i32, i32, i32, ptr, ptr, i32, i32, i32, i32, i32, i32, i32, i32, i32, i32, ptr, ptr, i32, i32, ptr, ptr, ptr, ptr, i32, i32, i64, i32, i32, i64, ptr, i64, ptr, i32, ptr, i32 }
%struct.AVRational = type { i32, i32 }
%struct.AVChannelLayout = type { i32, i32, %union.anon.0, ptr }
%union.anon.0 = type { i64 }
%struct.ADXContext = type { i32, [6 x %struct.ADXChannelState], i32, i32, i32, [2 x i32] }
%struct.ADXChannelState = type { i32, i32 }

; Function Attrs: nounwind uwtable
define internal void @adx_decode_flush(ptr noundef %0) #1 {
  %2 = alloca ptr, align 8
  %3 = alloca ptr, align 8
  store ptr %0, ptr %2, align 8, !tbaa !4
  call void @llvm.lifetime.start.p0(i64 8, ptr %3) #8
  %4 = load ptr, ptr %2, align 8, !tbaa !4
  %5 = getelementptr inbounds nuw %struct.AVCodecContext, ptr %4, i32 0, i32 6
  %6 = load ptr, ptr %5, align 8, !tbaa !9
  store ptr %6, ptr %3, align 8, !tbaa !29
  %7 = load ptr, ptr %3, align 8, !tbaa !29
  %8 = getelementptr inbounds nuw %struct.ADXContext, ptr %7, i32 0, i32 1
  %9 = getelementptr inbounds [6 x %struct.ADXChannelState], ptr %8, i64 0, i64 0
  call void @llvm.memset.p0.i64(ptr align 4 %9, i8 0, i64 48, i1 false)
  %10 = load ptr, ptr %3, align 8, !tbaa !29
  %11 = getelementptr inbounds nuw %struct.ADXContext, ptr %10, i32 0, i32 3
  store i32 0, ptr %11, align 4, !tbaa !49
  call void @llvm.lifetime.end.p0(i64 8, ptr %3) #8
  ret void
}